ccopy_reg
_reconstructor
p1
(cmatplotlib.font_manager
FontManager
p2
c__builtin__
object
p3
NtRp4
(dp5
S'ttflist'
p6
(lp7
g1
(cmatplotlib.font_manager
FontEntry
p8
g3
NtRp9
(dp10
S'style'
p11
Vnormal
p12
sS'name'
p13
VSTIXSizeTwoSym
p14
sS'weight'
p15
I400
sS'stretch'
p16
g12
sS'variant'
p17
g12
sS'fname'
p18
V/Users/tbiancal/miniconda3/envs/dev2/lib/python2.7/site-packages/matplotlib/mpl-data/fonts/ttf/STIXSizTwoSymReg.ttf
p19
sS'size'
p20
Vscalable
p21
sbag1
(g8
g3
NtRp22
(dp23
g11
g12
sg13
VDejaVu Sans
p24
sg15
I400
sg16
g12
sg17
g12
sg18
V/Users/tbiancal/miniconda3/envs/dev2/lib/python2.7/site-packages/matplotlib/mpl-data/fonts/ttf/DejaVuSans.ttf
p25
sg20
g21
sbag1
(g8
g3
NtRp26
(dp27
g11
g12
sg13
Vcmmi10
p28
sg15
I400
sg16
g12
sg17
g12
sg18
V/Users/tbiancal/miniconda3/envs/dev2/lib/python2.7/site-packages/matplotlib/mpl-data/fonts/ttf/cmmi10.ttf
p29
sg20
g21
sbag1
(g8
g3
NtRp30
(dp31
g11
g12
sg13
Vcmex10
p32
sg15
I400
sg16
g12
sg17
g12
sg18
V/Users/tbiancal/miniconda3/envs/dev2/lib/python2.7/site-packages/matplotlib/mpl-data/fonts/ttf/cmex10.ttf
p33
sg20
g21
sbag1
(g8
g3
NtRp34
(dp35
g11
g12
sg13
VSTIXNonUnicode
p36
sg15
I400
sg16
g12
sg17
g12
sg18
V/Users/tbiancal/miniconda3/envs/dev2/lib/python2.7/site-packages/matplotlib/mpl-data/fonts/ttf/STIXNonUni.ttf
p37
sg20
g21
sbag1
(g8
g3
NtRp38
(dp39
g11
Vitalic
p40
sg13
VDejaVu Serif
p41
sg15
I400
sg16
g12
sg17
g12
sg18
V/Users/tbiancal/miniconda3/envs/dev2/lib/python2.7/site-packages/matplotlib/mpl-data/fonts/ttf/DejaVuSerif-Italic.ttf
p42
sg20
g21
sbag1
(g8
g3
NtRp43
(dp44
g11
g40
sg13
VSTIXNonUnicode
p45
sg15
I400
sg16
g12
sg17
g12
sg18
V/Users/tbiancal/miniconda3/envs/dev2/lib/python2.7/site-packages/matplotlib/mpl-data/fonts/ttf/STIXNonUniIta.ttf
p46
sg20
g21
sbag1
(g8
g3
NtRp47
(dp48
g11
g12
sg13
VSTIXSizeOneSym
p49
sg15
I400
sg16
g12
sg17
g12
sg18
V/Users/tbiancal/miniconda3/envs/dev2/lib/python2.7/site-packages/matplotlib/mpl-data/fonts/ttf/STIXSizOneSymReg.ttf
p50
sg20
g21
sbag1
(g8
g3
NtRp51
(dp52
g11
g40
sg13
VSTIXNonUnicode
p53
sg15
I700
sg16
g12
sg17
g12
sg18
V/Users/tbiancal/miniconda3/envs/dev2/lib/python2.7/site-packages/matplotlib/mpl-data/fonts/ttf/STIXNonUniBolIta.ttf
p54
sg20
g21
sbag1
(g8
g3
NtRp55
(dp56
g11
g12
sg13
VSTIXNonUnicode
p57
sg15
I700
sg16
g12
sg17
g12
sg18
V/Users/tbiancal/miniconda3/envs/dev2/lib/python2.7/site-packages/matplotlib/mpl-data/fonts/ttf/STIXNonUniBol.ttf
p58
sg20
g21
sbag1
(g8
g3
NtRp59
(dp60
g11
Voblique
p61
sg13
VDejaVu Sans
p62
sg15
I700
sg16
g12
sg17
g12
sg18
V/Users/tbiancal/miniconda3/envs/dev2/lib/python2.7/site-packages/matplotlib/mpl-data/fonts/ttf/DejaVuSans-BoldOblique.ttf
p63
sg20
g21
sbag1
(g8
g3
NtRp64
(dp65
g11
g12
sg13
Vcmtt10
p66
sg15
I400
sg16
g12
sg17
g12
sg18
V/Users/tbiancal/miniconda3/envs/dev2/lib/python2.7/site-packages/matplotlib/mpl-data/fonts/ttf/cmtt10.ttf
p67
sg20
g21
sbag1
(g8
g3
NtRp68
(dp69
g11
g40
sg13
VSTIXGeneral
p70
sg15
I400
sg16
g12
sg17
g12
sg18
V/Users/tbiancal/miniconda3/envs/dev2/lib/python2.7/site-packages/matplotlib/mpl-data/fonts/ttf/STIXGeneralItalic.ttf
p71
sg20
g21
sbag1
(g8
g3
NtRp72
(dp73
g11
g12
sg13
VSTIXSizeFourSym
p74
sg15
I700
sg16
g12
sg17
g12
sg18
V/Users/tbiancal/miniconda3/envs/dev2/lib/python2.7/site-packages/matplotlib/mpl-data/fonts/ttf/STIXSizFourSymBol.ttf
p75
sg20
g21
sbag1
(g8
g3
NtRp76
(dp77
g11
g12
sg13
VSTIXSizeThreeSym
p78
sg15
I400
sg16
g12
sg17
g12
sg18
V/Users/tbiancal/miniconda3/envs/dev2/lib/python2.7/site-packages/matplotlib/mpl-data/fonts/ttf/STIXSizThreeSymReg.ttf
p79
sg20
g21
sbag1
(g8
g3
NtRp80
(dp81
g11
g12
sg13
VDejaVu Serif Display
p82
sg15
I400
sg16
g12
sg17
g12
sg18
V/Users/tbiancal/miniconda3/envs/dev2/lib/python2.7/site-packages/matplotlib/mpl-data/fonts/ttf/DejaVuSerifDisplay.ttf
p83
sg20
g21
sbag1
(g8
g3
NtRp84
(dp85
g11
g12
sg13
VSTIXSizeOneSym
p86
sg15
I700
sg16
g12
sg17
g12
sg18
V/Users/tbiancal/miniconda3/envs/dev2/lib/python2.7/site-packages/matplotlib/mpl-data/fonts/ttf/STIXSizOneSymBol.ttf
p87
sg20
g21
sbag1
(g8
g3
NtRp88
(dp89
g11
g12
sg13
Vcmsy10
p90
sg15
I400
sg16
g12
sg17
g12
sg18
V/Users/tbiancal/miniconda3/envs/dev2/lib/python2.7/site-packages/matplotlib/mpl-data/fonts/ttf/cmsy10.ttf
p91
sg20
g21
sbag1
(g8
g3
NtRp92
(dp93
g11
g12
sg13
Vcmss10
p94
sg15
I400
sg16
g12
sg17
g12
sg18
V/Users/tbiancal/miniconda3/envs/dev2/lib/python2.7/site-packages/matplotlib/mpl-data/fonts/ttf/cmss10.ttf
p95
sg20
g21
sbag1
(g8
g3
NtRp96
(dp97
g11
g12
sg13
VSTIXGeneral
p98
sg15
I400
sg16
g12
sg17
g12
sg18
V/Users/tbiancal/miniconda3/envs/dev2/lib/python2.7/site-packages/matplotlib/mpl-data/fonts/ttf/STIXGeneral.ttf
p99
sg20
g21
sbag1
(g8
g3
NtRp100
(dp101
g11
g12
sg13
VSTIXSizeFiveSym
p102
sg15
I400
sg16
g12
sg17
g12
sg18
V/Users/tbiancal/miniconda3/envs/dev2/lib/python2.7/site-packages/matplotlib/mpl-data/fonts/ttf/STIXSizFiveSymReg.ttf
p103
sg20
g21
sbag1
(g8
g3
NtRp104
(dp105
g11
g12
sg13
VDejaVu Serif
p106
sg15
I700
sg16
g12
sg17
g12
sg18
V/Users/tbiancal/miniconda3/envs/dev2/lib/python2.7/site-packages/matplotlib/mpl-data/fonts/ttf/DejaVuSerif-Bold.ttf
p107
sg20
g21
sbag1
(g8
g3
NtRp108
(dp109
g11
g40
sg13
VSTIXGeneral
p110
sg15
I700
sg16
g12
sg17
g12
sg18
V/Users/tbiancal/miniconda3/envs/dev2/lib/python2.7/site-packages/matplotlib/mpl-data/fonts/ttf/STIXGeneralBolIta.ttf
p111
sg20
g21
sbag1
(g8
g3
NtRp112
(dp113
g11
g12
sg13
VDejaVu Sans Mono
p114
sg15
I400
sg16
g12
sg17
g12
sg18
V/Users/tbiancal/miniconda3/envs/dev2/lib/python2.7/site-packages/matplotlib/mpl-data/fonts/ttf/DejaVuSansMono.ttf
p115
sg20
g21
sbag1
(g8
g3
NtRp116
(dp117
g11
g61
sg13
VDejaVu Sans Mono
p118
sg15
I700
sg16
g12
sg17
g12
sg18
V/Users/tbiancal/miniconda3/envs/dev2/lib/python2.7/site-packages/matplotlib/mpl-data/fonts/ttf/DejaVuSansMono-BoldOblique.ttf
p119
sg20
g21
sbag1
(g8
g3
NtRp120
(dp121
g11
g12
sg13
VDejaVu Sans Mono
p122
sg15
I700
sg16
g12
sg17
g12
sg18
V/Users/tbiancal/miniconda3/envs/dev2/lib/python2.7/site-packages/matplotlib/mpl-data/fonts/ttf/DejaVuSansMono-Bold.ttf
p123
sg20
g21
sbag1
(g8
g3
NtRp124
(dp125
g11
g12
sg13
VDejaVu Sans Display
p126
sg15
I400
sg16
g12
sg17
g12
sg18
V/Users/tbiancal/miniconda3/envs/dev2/lib/python2.7/site-packages/matplotlib/mpl-data/fonts/ttf/DejaVuSansDisplay.ttf
p127
sg20
g21
sbag1
(g8
g3
NtRp128
(dp129
g11
g12
sg13
VSTIXSizeThreeSym
p130
sg15
I700
sg16
g12
sg17
g12
sg18
V/Users/tbiancal/miniconda3/envs/dev2/lib/python2.7/site-packages/matplotlib/mpl-data/fonts/ttf/STIXSizThreeSymBol.ttf
p131
sg20
g21
sbag1
(g8
g3
NtRp132
(dp133
g11
g12
sg13
VSTIXSizeTwoSym
p134
sg15
I700
sg16
g12
sg17
g12
sg18
V/Users/tbiancal/miniconda3/envs/dev2/lib/python2.7/site-packages/matplotlib/mpl-data/fonts/ttf/STIXSizTwoSymBol.ttf
p135
sg20
g21
sbag1
(g8
g3
NtRp136
(dp137
g11
g12
sg13
Vcmb10
p138
sg15
I400
sg16
g12
sg17
g12
sg18
V/Users/tbiancal/miniconda3/envs/dev2/lib/python2.7/site-packages/matplotlib/mpl-data/fonts/ttf/cmb10.ttf
p139
sg20
g21
sbag1
(g8
g3
NtRp140
(dp141
g11
g12
sg13
VDejaVu Sans
p142
sg15
I700
sg16
g12
sg17
g12
sg18
V/Users/tbiancal/miniconda3/envs/dev2/lib/python2.7/site-packages/matplotlib/mpl-data/fonts/ttf/DejaVuSans-Bold.ttf
p143
sg20
g21
sbag1
(g8
g3
NtRp144
(dp145
g11
g12
sg13
Vcmr10
p146
sg15
I400
sg16
g12
sg17
g12
sg18
V/Users/tbiancal/miniconda3/envs/dev2/lib/python2.7/site-packages/matplotlib/mpl-data/fonts/ttf/cmr10.ttf
p147
sg20
g21
sbag1
(g8
g3
NtRp148
(dp149
g11
g61
sg13
VDejaVu Sans Mono
p150
sg15
I400
sg16
g12
sg17
g12
sg18
V/Users/tbiancal/miniconda3/envs/dev2/lib/python2.7/site-packages/matplotlib/mpl-data/fonts/ttf/DejaVuSansMono-Oblique.ttf
p151
sg20
g21
sbag1
(g8
g3
NtRp152
(dp153
g11
g12
sg13
VSTIXGeneral
p154
sg15
I700
sg16
g12
sg17
g12
sg18
V/Users/tbiancal/miniconda3/envs/dev2/lib/python2.7/site-packages/matplotlib/mpl-data/fonts/ttf/STIXGeneralBol.ttf
p155
sg20
g21
sbag1
(g8
g3
NtRp156
(dp157
g11
g40
sg13
VDejaVu Serif
p158
sg15
I700
sg16
g12
sg17
g12
sg18
V/Users/tbiancal/miniconda3/envs/dev2/lib/python2.7/site-packages/matplotlib/mpl-data/fonts/ttf/DejaVuSerif-BoldItalic.ttf
p159
sg20
g21
sbag1
(g8
g3
NtRp160
(dp161
g11
g12
sg13
VSTIXSizeFourSym
p162
sg15
I400
sg16
g12
sg17
g12
sg18
V/Users/tbiancal/miniconda3/envs/dev2/lib/python2.7/site-packages/matplotlib/mpl-data/fonts/ttf/STIXSizFourSymReg.ttf
p163
sg20
g21
sbag1
(g8
g3
NtRp164
(dp165
g11
g12
sg13
VDejaVu Serif
p166
sg15
I400
sg16
g12
sg17
g12
sg18
V/Users/tbiancal/miniconda3/envs/dev2/lib/python2.7/site-packages/matplotlib/mpl-data/fonts/ttf/DejaVuSerif.ttf
p167
sg20
g21
sbag1
(g8
g3
NtRp168
(dp169
g11
g61
sg13
VDejaVu Sans
p170
sg15
I400
sg16
g12
sg17
g12
sg18
V/Users/tbiancal/miniconda3/envs/dev2/lib/python2.7/site-packages/matplotlib/mpl-data/fonts/ttf/DejaVuSans-Oblique.ttf
p171
sg20
g21
sbag1
(g8
g3
NtRp172
(dp173
g11
g12
sg13
V.SF NS Display Condensed
p174
sg15
I400
sg16
g12
sg17
g12
sg18
V/System/Library/Fonts/SFNSDisplayCondensed-Regular.otf
p175
sg20
g21
sbag1
(g8
g3
NtRp176
(dp177
g11
g40
sg13
VTrebuchet MS
p178
sg15
I400
sg16
g12
sg17
g12
sg18
V/Library/Fonts/Trebuchet MS Italic.ttf
p179
sg20
g21
sbag1
(g8
g3
NtRp180
(dp181
g11
g12
sg13
VHoefler Text
p182
sg15
I400
sg16
g12
sg17
g12
sg18
V/Library/Fonts/Hoefler Text Ornaments.ttf
p183
sg20
g21
sbag1
(g8
g3
NtRp184
(dp185
g11
g12
sg13
V.SF Compact Rounded
p186
sg15
I400
sg16
g12
sg17
g12
sg18
V/System/Library/Fonts/SFCompactRounded-Heavy.otf
p187
sg20
g21
sbag1
(g8
g3
NtRp188
(dp189
g11
g12
sg13
VTimes New Roman
p190
sg15
I500
sg16
g12
sg17
g12
sg18
V/Library/Fonts/Times New Roman.ttf
p191
sg20
g21
sbag1
(g8
g3
NtRp192
(dp193
g11
g12
sg13
V.SF Compact Display
p194
sg15
I400
sg16
g12
sg17
g12
sg18
V/System/Library/Fonts/SFCompactDisplay-Medium.otf
p195
sg20
g21
sbag1
(g8
g3
NtRp196
(dp197
g11
g12
sg13
VVerdana
p198
sg15
I700
sg16
g12
sg17
g12
sg18
V/Library/Fonts/Verdana Bold.ttf
p199
sg20
g21
sbag1
(g8
g3
NtRp200
(dp201
g11
g12
sg13
V.SF Compact Rounded
p202
sg15
I400
sg16
g12
sg17
g12
sg18
V/System/Library/Fonts/SFCompactRounded-Medium.otf
p203
sg20
g21
sbag1
(g8
g3
NtRp204
(dp205
g11
g12
sg13
VArial Unicode MS
p206
sg15
I400
sg16
g12
sg17
g12
sg18
V/Library/Fonts/Arial Unicode.ttf
p207
sg20
g21
sbag1
(g8
g3
NtRp208
(dp209
g11
g12
sg13
VSTIXSizeThreeSym
p210
sg15
I400
sg16
g12
sg17
g12
sg18
V/Library/Fonts/STIXSizThreeSymReg.otf
p211
sg20
g21
sbag1
(g8
g3
NtRp212
(dp213
g11
g12
sg13
VDIN Condensed
p214
sg15
I700
sg16
Vcondensed
p215
sg17
g12
sg18
V/Library/Fonts/DIN Condensed Bold.ttf
p216
sg20
g21
sbag1
(g8
g3
NtRp217
(dp218
g11
g12
sg13
VSystem Font
p219
sg15
I400
sg16
g12
sg17
g12
sg18
V/System/Library/Fonts/SFNSDisplay-ThinG1.otf
p220
sg20
g21
sbag1
(g8
g3
NtRp221
(dp222
g11
g12
sg13
VSystem Font
p223
sg15
I400
sg16
g12
sg17
g12
sg18
V/System/Library/Fonts/SFNSDisplay-BoldItalic.otf
p224
sg20
g21
sbag1
(g8
g3
NtRp225
(dp226
g11
g12
sg13
VHerculanum
p227
sg15
I400
sg16
g12
sg17
g12
sg18
V/Library/Fonts/Herculanum.ttf
p228
sg20
g21
sbag1
(g8
g3
NtRp229
(dp230
g11
g12
sg13
VArial
p231
sg15
I400
sg16
g12
sg17
g12
sg18
V/Library/Fonts/Arial.ttf
p232
sg20
g21
sbag1
(g8
g3
NtRp233
(dp234
g11
g12
sg13
V.SF Compact Display
p235
sg15
I400
sg16
g12
sg17
g12
sg18
V/System/Library/Fonts/SFCompactDisplay-Semibold.otf
p236
sg20
g21
sbag1
(g8
g3
NtRp237
(dp238
g11
g12
sg13
VAppleGothic
p239
sg15
I400
sg16
g12
sg17
g12
sg18
V/Library/Fonts/AppleGothic.ttf
p240
sg20
g21
sbag1
(g8
g3
NtRp241
(dp242
g11
g12
sg13
V.SF NS Text Condensed
p243
sg15
I400
sg16
g12
sg17
g12
sg18
V/System/Library/Fonts/SFNSTextCondensed-Bold.otf
p244
sg20
g21
sbag1
(g8
g3
NtRp245
(dp246
g11
g12
sg13
VArial Narrow
p247
sg15
I400
sg16
g215
sg17
g12
sg18
V/Library/Fonts/Arial Narrow.ttf
p248
sg20
g21
sbag1
(g8
g3
NtRp249
(dp250
g11
g12
sg13
V.SF NS Rounded
p251
sg15
I400
sg16
g12
sg17
g12
sg18
V/System/Library/Fonts/SFNSRounded-Ultralight.otf
p252
sg20
g21
sbag1
(g8
g3
NtRp253
(dp254
g11
g12
sg13
V.SF NS Display Condensed
p255
sg15
I400
sg16
g12
sg17
g12
sg18
V/System/Library/Fonts/SFNSDisplayCondensed-Bold.otf
p256
sg20
g21
sbag1
(g8
g3
NtRp257
(dp258
g11
g12
sg13
V.SF Compact Rounded
p259
sg15
I400
sg16
g12
sg17
g12
sg18
V/System/Library/Fonts/SFCompactRounded-Ultralight.otf
p260
sg20
g21
sbag1
(g8
g3
NtRp261
(dp262
g11
g12
sg13
V.SF NS Display Condensed
p263
sg15
I400
sg16
g12
sg17
g12
sg18
V/System/Library/Fonts/SFNSDisplayCondensed-Semibold.otf
p264
sg20
g21
sbag1
(g8
g3
NtRp265
(dp266
g11
g12
sg13
VAppleMyungjo
p267
sg15
I400
sg16
g12
sg17
g12
sg18
V/Library/Fonts/AppleMyungjo.ttf
p268
sg20
g21
sbag1
(g8
g3
NtRp269
(dp270
g11
g12
sg13
VMishafi Gold
p271
sg15
I400
sg16
g12
sg17
g12
sg18
V/Library/Fonts/Mishafi Gold.ttf
p272
sg20
g21
sbag1
(g8
g3
NtRp273
(dp274
g11
g12
sg13
VZapf Dingbats
p275
sg15
I400
sg16
g12
sg17
g12
sg18
V/System/Library/Fonts/ZapfDingbats.ttf
p276
sg20
g21
sbag1
(g8
g3
NtRp277
(dp278
g11
g12
sg13
V.SF Compact Rounded
p279
sg15
I400
sg16
g12
sg17
g12
sg18
V/System/Library/Fonts/SFCompactRounded-Semibold.otf
p280
sg20
g21
sbag1
(g8
g3
NtRp281
(dp282
g11
g12
sg13
V.SF Compact Text
p283
sg15
I400
sg16
g12
sg17
g12
sg18
V/System/Library/Fonts/SFCompactText-BoldItalic.otf
p284
sg20
g21
sbag1
(g8
g3
NtRp285
(dp286
g11
g12
sg13
VSTIXIntegralsD
p287
sg15
I700
sg16
g12
sg17
g12
sg18
V/Library/Fonts/STIXIntDBol.otf
p288
sg20
g21
sbag1
(g8
g3
NtRp289
(dp290
g11
g12
sg13
VSystem Font
p291
sg15
I400
sg16
g12
sg17
g12
sg18
V/System/Library/Fonts/SFNSDisplay-BlackItalic.otf
p292
sg20
g21
sbag1
(g8
g3
NtRp293
(dp294
g11
g12
sg13
VDIN Alternate
p295
sg15
I700
sg16
g12
sg17
g12
sg18
V/Library/Fonts/DIN Alternate Bold.ttf
p296
sg20
g21
sbag1
(g8
g3
NtRp297
(dp298
g11
g12
sg13
V.SF Compact Display
p299
sg15
I400
sg16
g12
sg17
g12
sg18
V/System/Library/Fonts/SFCompactDisplay-Bold.otf
p300
sg20
g21
sbag1
(g8
g3
NtRp301
(dp302
g11
g12
sg13
VSTIXSizeThreeSym
p303
sg15
I700
sg16
g12
sg17
g12
sg18
V/Library/Fonts/STIXSizThreeSymBol.otf
p304
sg20
g21
sbag1
(g8
g3
NtRp305
(dp306
g11
g12
sg13
VSystem Font
p307
sg15
I400
sg16
g12
sg17
g12
sg18
V/System/Library/Fonts/SFNSDisplay.ttf
p308
sg20
g21
sbag1
(g8
g3
NtRp309
(dp310
g11
g12
sg13
VCourier New
p311
sg15
I400
sg16
g12
sg17
g12
sg18
V/Library/Fonts/Courier New.ttf
p312
sg20
g21
sbag1
(g8
g3
NtRp313
(dp314
g11
g40
sg13
VArial Narrow
p315
sg15
I700
sg16
g215
sg17
g12
sg18
V/Library/Fonts/Arial Narrow Bold Italic.ttf
p316
sg20
g21
sbag1
(g8
g3
NtRp317
(dp318
g11
g12
sg13
V.SF NS Symbols
p319
sg15
I400
sg16
g12
sg17
g12
sg18
V/System/Library/Fonts/SFNSSymbols-Ultralight.otf
p320
sg20
g21
sbag1
(g8
g3
NtRp321
(dp322
g11
g12
sg13
VLuminari
p323
sg15
I400
sg16
g12
sg17
g12
sg18
V/Library/Fonts/Luminari.ttf
p324
sg20
g21
sbag1
(g8
g3
NtRp325
(dp326
g11
g12
sg13
VZapfino
p327
sg15
I400
sg16
g12
sg17
g12
sg18
V/Library/Fonts/Zapfino.ttf
p328
sg20
g21
sbag1
(g8
g3
NtRp329
(dp330
g11
g12
sg13
VArial Narrow
p331
sg15
I700
sg16
g215
sg17
g12
sg18
V/Library/Fonts/Arial Narrow Bold.ttf
p332
sg20
g21
sbag1
(g8
g3
NtRp333
(dp334
g11
g40
sg13
VTimes New Roman
p335
sg15
I500
sg16
g12
sg17
g12
sg18
V/Library/Fonts/Times New Roman Italic.ttf
p336
sg20
g21
sbag1
(g8
g3
NtRp337
(dp338
g11
g12
sg13
V.SF NS Text Condensed
p339
sg15
I400
sg16
g12
sg17
g12
sg18
V/System/Library/Fonts/SFNSTextCondensed-Medium.otf
p340
sg20
g21
sbag1
(g8
g3
NtRp341
(dp342
g11
g12
sg13
VKrungthep
p343
sg15
I400
sg16
g12
sg17
g12
sg18
V/Library/Fonts/Krungthep.ttf
p344
sg20
g21
sbag1
(g8
g3
NtRp345
(dp346
g11
g12
sg13
V.SF NS Display Condensed
p347
sg15
I400
sg16
g12
sg17
g12
sg18
V/System/Library/Fonts/SFNSDisplayCondensed-Light.otf
p348
sg20
g21
sbag1
(g8
g3
NtRp349
(dp350
g11
g12
sg13
VApple Symbols
p351
sg15
I400
sg16
g12
sg17
g12
sg18
V/System/Library/Fonts/Apple Symbols.ttf
p352
sg20
g21
sbag1
(g8
g3
NtRp353
(dp354
g11
g12
sg13
VSTIXSizeTwoSym
p355
sg15
I700
sg16
g12
sg17
g12
sg18
V/Library/Fonts/STIXSizTwoSymBol.otf
p356
sg20
g21
sbag1
(g8
g3
NtRp357
(dp358
g11
g12
sg13
VSTIXIntegralsSm
p359
sg15
I700
sg16
g12
sg17
g12
sg18
V/Library/Fonts/STIXIntSmBol.otf
p360
sg20
g21
sbag1
(g8
g3
NtRp361
(dp362
g11
g12
sg13
VDiwan Thuluth
p363
sg15
I400
sg16
g12
sg17
g12
sg18
V/Library/Fonts/Diwan Thuluth.ttf
p364
sg20
g21
sbag1
(g8
g3
NtRp365
(dp366
g11
g12
sg13
VTrebuchet MS
p367
sg15
I700
sg16
g12
sg17
g12
sg18
V/Library/Fonts/Trebuchet MS Bold.ttf
p368
sg20
g21
sbag1
(g8
g3
NtRp369
(dp370
g11
g12
sg13
V.SF Compact Text
p371
sg15
I400
sg16
g12
sg17
g12
sg18
V/System/Library/Fonts/SFCompactText-HeavyItalic.otf
p372
sg20
g21
sbag1
(g8
g3
NtRp373
(dp374
g11
g12
sg13
VBradley Hand
p375
sg15
I700
sg16
g12
sg17
g12
sg18
V/Library/Fonts/Bradley Hand Bold.ttf
p376
sg20
g21
sbag1
(g8
g3
NtRp377
(dp378
g11
g12
sg13
V.SF Compact Rounded
p379
sg15
I400
sg16
g12
sg17
g12
sg18
V/System/Library/Fonts/SFCompactRounded-Thin.otf
p380
sg20
g21
sbag1
(g8
g3
NtRp381
(dp382
g11
g12
sg13
VSystem Font
p383
sg15
I400
sg16
g12
sg17
g12
sg18
V/System/Library/Fonts/SFNSDisplay-SemiboldItalic.otf
p384
sg20
g21
sbag1
(g8
g3
NtRp385
(dp386
g11
g40
sg13
VTimes New Roman
p387
sg15
I700
sg16
g12
sg17
g12
sg18
V/Library/Fonts/Times New Roman Bold Italic.ttf
p388
sg20
g21
sbag1
(g8
g3
NtRp389
(dp390
g11
g12
sg13
VSystem Font
p391
sg15
I400
sg16
g12
sg17
g12
sg18
V/System/Library/Fonts/SFNSDisplay-RegularItalic.otf
p392
sg20
g21
sbag1
(g8
g3
NtRp393
(dp394
g11
g40
sg13
VArial Narrow
p395
sg15
I400
sg16
g215
sg17
g12
sg18
V/Library/Fonts/Arial Narrow Italic.ttf
p396
sg20
g21
sbag1
(g8
g3
NtRp397
(dp398
g11
g12
sg13
V.SF Compact Rounded
p399
sg15
I400
sg16
g12
sg17
g12
sg18
V/System/Library/Fonts/SFCompactRounded-Light.otf
p400
sg20
g21
sbag1
(g8
g3
NtRp401
(dp402
g11
g12
sg13
V.SF Compact Display
p403
sg15
I400
sg16
g12
sg17
g12
sg18
V/System/Library/Fonts/SFCompactDisplay-Regular.otf
p404
sg20
g21
sbag1
(g8
g3
NtRp405
(dp406
g11
g12
sg13
V.SF NS Display Condensed
p407
sg15
I400
sg16
g12
sg17
g12
sg18
V/System/Library/Fonts/SFNSDisplayCondensed-Ultralight.otf
p408
sg20
g21
sbag1
(g8
g3
NtRp409
(dp410
g11
g12
sg13
VSystem Font
p411
sg15
I400
sg16
g12
sg17
g12
sg18
V/System/Library/Fonts/SFNSDisplay-MediumItalic.otf
p412
sg20
g21
sbag1
(g8
g3
NtRp413
(dp414
g11
g12
sg13
VApple Braille
p415
sg15
I400
sg16
g12
sg17
g12
sg18
V/System/Library/Fonts/Apple Braille Outline 8 Dot.ttf
p416
sg20
g21
sbag1
(g8
g3
NtRp417
(dp418
g11
g12
sg13
V.SF NS Text Condensed
p419
sg15
I400
sg16
g12
sg17
g12
sg18
V/System/Library/Fonts/SFNSTextCondensed-Heavy.otf
p420
sg20
g21
sbag1
(g8
g3
NtRp421
(dp422
g11
g12
sg13
VPlantagenet Cherokee
p423
sg15
I400
sg16
g12
sg17
g12
sg18
V/Library/Fonts/PlantagenetCherokee.ttf
p424
sg20
g21
sbag1
(g8
g3
NtRp425
(dp426
g11
g12
sg13
VTimes New Roman
p427
sg15
I700
sg16
g12
sg17
g12
sg18
V/Library/Fonts/Times New Roman Bold.ttf
p428
sg20
g21
sbag1
(g8
g3
NtRp429
(dp430
g11
g40
sg13
VArial
p431
sg15
I700
sg16
g12
sg17
g12
sg18
V/Library/Fonts/Arial Bold Italic.ttf
p432
sg20
g21
sbag1
(g8
g3
NtRp433
(dp434
g11
g12
sg13
V.SF NS Text Condensed
p435
sg15
I400
sg16
g12
sg17
g12
sg18
V/System/Library/Fonts/SFNSTextCondensed-Regular.otf
p436
sg20
g21
sbag1
(g8
g3
NtRp437
(dp438
g11
g12
sg13
V.SF NS Symbols
p439
sg15
I400
sg16
g12
sg17
g12
sg18
V/System/Library/Fonts/SFNSSymbols-Thin.otf
p440
sg20
g21
sbag1
(g8
g3
NtRp441
(dp442
g11
g12
sg13
VSTIXVariants
p443
sg15
I400
sg16
g12
sg17
g12
sg18
V/Library/Fonts/STIXVar.otf
p444
sg20
g21
sbag1
(g8
g3
NtRp445
(dp446
g11
g12
sg13
VMishafi
p447
sg15
I400
sg16
g12
sg17
g12
sg18
V/Library/Fonts/Mishafi.ttf
p448
sg20
g21
sbag1
(g8
g3
NtRp449
(dp450
g11
g12
sg13
VSTIXVariants
p451
sg15
I700
sg16
g12
sg17
g12
sg18
V/Library/Fonts/STIXVarBol.otf
p452
sg20
g21
sbag1
(g8
g3
NtRp453
(dp454
g11
g12
sg13
VGeorgia
p455
sg15
I400
sg16
g12
sg17
g12
sg18
V/Library/Fonts/Georgia.ttf
p456
sg20
g21
sbag1
(g8
g3
NtRp457
(dp458
g11
g12
sg13
V.SF NS Rounded
p459
sg15
I400
sg16
g12
sg17
g12
sg18
V/System/Library/Fonts/SFNSRounded-Medium.otf
p460
sg20
g21
sbag1
(g8
g3
NtRp461
(dp462
g11
g12
sg13
V.SF Compact Text
p463
sg15
I400
sg16
g12
sg17
g12
sg18
V/System/Library/Fonts/SFCompactText-Regular.otf
p464
sg20
g21
sbag1
(g8
g3
NtRp465
(dp466
g11
g12
sg13
V.SF Compact Text
p467
sg15
I400
sg16
g12
sg17
g12
sg18
V/System/Library/Fonts/SFCompactText-Semibold.otf
p468
sg20
g21
sbag1
(g8
g3
NtRp469
(dp470
g11
g12
sg13
V.LastResort
p471
sg15
I400
sg16
g12
sg17
g12
sg18
V/System/Library/Fonts/LastResort.otf
p472
sg20
g21
sbag1
(g8
g3
NtRp473
(dp474
g11
g12
sg13
VSTIXIntegralsUp
p475
sg15
I700
sg16
g12
sg17
g12
sg18
V/Library/Fonts/STIXIntUpBol.otf
p476
sg20
g21
sbag1
(g8
g3
NtRp477
(dp478
g11
g12
sg13
V.SF Compact Text
p479
sg15
I400
sg16
g12
sg17
g12
sg18
V/System/Library/Fonts/SFCompactText-Bold.otf
p480
sg20
g21
sbag1
(g8
g3
NtRp481
(dp482
g11
g12
sg13
VSkia
p483
sg15
I400
sg16
g12
sg17
g12
sg18
V/Library/Fonts/Skia.ttf
p484
sg20
g21
sbag1
(g8
g3
NtRp485
(dp486
g11
g12
sg13
VSTIXSizeFiveSym
p487
sg15
I400
sg16
g12
sg17
g12
sg18
V/Library/Fonts/STIXSizFiveSymReg.otf
p488
sg20
g21
sbag1
(g8
g3
NtRp489
(dp490
g11
g12
sg13
VVerdana
p491
sg15
I400
sg16
g12
sg17
g12
sg18
V/Library/Fonts/Verdana.ttf
p492
sg20
g21
sbag1
(g8
g3
NtRp493
(dp494
g11
g12
sg13
VFarisi
p495
sg15
I400
sg16
g12
sg17
g12
sg18
V/Library/Fonts/Farisi.ttf
p496
sg20
g21
sbag1
(g8
g3
NtRp497
(dp498
g11
g12
sg13
VSystem Font
p499
sg15
I400
sg16
g12
sg17
g12
sg18
V/System/Library/Fonts/SFNSText.ttf
p500
sg20
g21
sbag1
(g8
g3
NtRp501
(dp502
g11
g12
sg13
VSystem Font
p503
sg15
I400
sg16
g12
sg17
g12
sg18
V/System/Library/Fonts/SFNSDisplay-ThinG2.otf
p504
sg20
g21
sbag1
(g8
g3
NtRp505
(dp506
g11
g12
sg13
V.SF Compact Display
p507
sg15
I400
sg16
g12
sg17
g12
sg18
V/System/Library/Fonts/SFCompactDisplay-Light.otf
p508
sg20
g21
sbag1
(g8
g3
NtRp509
(dp510
g11
g12
sg13
VSTIXNonUnicode
p511
sg15
I400
sg16
g12
sg17
g12
sg18
V/Library/Fonts/STIXNonUni.otf
p512
sg20
g21
sbag1
(g8
g3
NtRp513
(dp514
g11
g12
sg13
VBodoni 72 Smallcaps
p515
sg15
I400
sg16
g12
sg17
g12
sg18
V/Library/Fonts/Bodoni 72 Smallcaps Book.ttf
p516
sg20
g21
sbag1
(g8
g3
NtRp517
(dp518
g11
g12
sg13
V.SF NS Rounded
p519
sg15
I400
sg16
g12
sg17
g12
sg18
V/System/Library/Fonts/SFNSRounded-Light.otf
p520
sg20
g21
sbag1
(g8
g3
NtRp521
(dp522
g11
g12
sg13
VDroidSansMono Nerd Font
p523
sg15
I400
sg16
g12
sg17
g12
sg18
V/Users/tbiancal/Library/Fonts/Droid Sans Mono Nerd Font Complete.otf
p524
sg20
g21
sbag1
(g8
g3
NtRp525
(dp526
g11
g40
sg13
VArial
p527
sg15
I400
sg16
g12
sg17
g12
sg18
V/Library/Fonts/Arial Italic.ttf
p528
sg20
g21
sbag1
(g8
g3
NtRp529
(dp530
g11
g12
sg13
V.SF NS Rounded
p531
sg15
I400
sg16
g12
sg17
g12
sg18
V/System/Library/Fonts/SFNSRounded-Bold.otf
p532
sg20
g21
sbag1
(g8
g3
NtRp533
(dp534
g11
g40
sg13
VSTIXNonUnicode
p535
sg15
I700
sg16
g12
sg17
g12
sg18
V/Library/Fonts/STIXNonUniBolIta.otf
p536
sg20
g21
sbag1
(g8
g3
NtRp537
(dp538
g11
g12
sg13
VApple Braille
p539
sg15
I400
sg16
g12
sg17
g12
sg18
V/System/Library/Fonts/Apple Braille Pinpoint 8 Dot.ttf
p540
sg20
g21
sbag1
(g8
g3
NtRp541
(dp542
g11
g40
sg13
VGeorgia
p543
sg15
I400
sg16
g12
sg17
g12
sg18
V/Library/Fonts/Georgia Italic.ttf
p544
sg20
g21
sbag1
(g8
g3
NtRp545
(dp546
g11
g12
sg13
VApple Braille
p547
sg15
I400
sg16
g12
sg17
g12
sg18
V/System/Library/Fonts/Apple Braille Outline 6 Dot.ttf
p548
sg20
g21
sbag1
(g8
g3
NtRp549
(dp550
g11
g40
sg13
VCourier New
p551
sg15
I700
sg16
g12
sg17
g12
sg18
V/Library/Fonts/Courier New Bold Italic.ttf
p552
sg20
g21
sbag1
(g8
g3
NtRp553
(dp554
g11
g12
sg13
V.SF NS Symbols
p555
sg15
I400
sg16
g12
sg17
g12
sg18
V/System/Library/Fonts/SFNSSymbols-Medium.otf
p556
sg20
g21
sbag1
(g8
g3
NtRp557
(dp558
g11
g12
sg13
VArial Rounded MT Bold
p559
sg15
I700
sg16
g12
sg17
g12
sg18
V/Library/Fonts/Arial Rounded Bold.ttf
p560
sg20
g21
sbag1
(g8
g3
NtRp561
(dp562
g11
g12
sg13
V.SF NS Display Condensed
p563
sg15
I400
sg16
g12
sg17
g12
sg18
V/System/Library/Fonts/SFNSDisplayCondensed-Thin.otf
p564
sg20
g21
sbag1
(g8
g3
NtRp565
(dp566
g11
g12
sg13
V.SF NS Display Condensed
p567
sg15
I400
sg16
g12
sg17
g12
sg18
V/System/Library/Fonts/SFNSDisplayCondensed-Heavy.otf
p568
sg20
g21
sbag1
(g8
g3
NtRp569
(dp570
g11
g40
sg13
VVerdana
p571
sg15
I700
sg16
g12
sg17
g12
sg18
V/Library/Fonts/Verdana Bold Italic.ttf
p572
sg20
g21
sbag1
(g8
g3
NtRp573
(dp574
g11
g12
sg13
V.SF Compact Display
p575
sg15
I400
sg16
g12
sg17
g12
sg18
V/System/Library/Fonts/SFCompactDisplay-Black.otf
p576
sg20
g21
sbag1
(g8
g3
NtRp577
(dp578
g11
g12
sg13
V.SF NS Symbols
p579
sg15
I400
sg16
g12
sg17
g12
sg18
V/System/Library/Fonts/SFNSSymbols-Black.otf
p580
sg20
g21
sbag1
(g8
g3
NtRp581
(dp582
g11
g12
sg13
V.SF NS Display Condensed
p583
sg15
I400
sg16
g12
sg17
g12
sg18
V/System/Library/Fonts/SFNSDisplayCondensed-Black.otf
p584
sg20
g21
sbag1
(g8
g3
NtRp585
(dp586
g11
g12
sg13
V.SF NS Symbols
p587
sg15
I400
sg16
g12
sg17
g12
sg18
V/System/Library/Fonts/SFNSSymbols-Heavy.otf
p588
sg20
g21
sbag1
(g8
g3
NtRp589
(dp590
g11
g12
sg13
VSTIXIntegralsSm
p591
sg15
I400
sg16
g12
sg17
g12
sg18
V/Library/Fonts/STIXIntSmReg.otf
p592
sg20
g21
sbag1
(g8
g3
NtRp593
(dp594
g11
g12
sg13
VKokonor
p595
sg15
I400
sg16
g12
sg17
g12
sg18
V/Library/Fonts/Kokonor.ttf
p596
sg20
g21
sbag1
(g8
g3
NtRp597
(dp598
g11
g40
sg13
VVerdana
p599
sg15
I400
sg16
g12
sg17
g12
sg18
V/Library/Fonts/Verdana Italic.ttf
p600
sg20
g21
sbag1
(g8
g3
NtRp601
(dp602
g11
g12
sg13
VSTIXGeneral
p603
sg15
I700
sg16
g12
sg17
g12
sg18
V/Library/Fonts/STIXGeneralBol.otf
p604
sg20
g21
sbag1
(g8
g3
NtRp605
(dp606
g11
g12
sg13
VApple Braille
p607
sg15
I400
sg16
g12
sg17
g12
sg18
V/System/Library/Fonts/Apple Braille.ttf
p608
sg20
g21
sbag1
(g8
g3
NtRp609
(dp610
g11
g12
sg13
VSystem Font
p611
sg15
I400
sg16
g12
sg17
g12
sg18
V/System/Library/Fonts/SFNSDisplay-LightItalic.otf
p612
sg20
g21
sbag1
(g8
g3
NtRp613
(dp614
g11
g12
sg13
V.SF Compact Text
p615
sg15
I400
sg16
g12
sg17
g12
sg18
V/System/Library/Fonts/SFCompactText-Heavy.otf
p616
sg20
g21
sbag1
(g8
g3
NtRp617
(dp618
g11
g12
sg13
VSystem Font
p619
sg15
I400
sg16
g12
sg17
g12
sg18
V/System/Library/Fonts/SFNSDisplay-HeavyItalic.otf
p620
sg20
g21
sbag1
(g8
g3
NtRp621
(dp622
g11
g12
sg13
VChalkduster
p623
sg15
I400
sg16
g12
sg17
g12
sg18
V/Library/Fonts/Chalkduster.ttf
p624
sg20
g21
sbag1
(g8
g3
NtRp625
(dp626
g11
g12
sg13
VGurmukhi MT
p627
sg15
I400
sg16
g12
sg17
g12
sg18
V/Library/Fonts/Gurmukhi.ttf
p628
sg20
g21
sbag1
(g8
g3
NtRp629
(dp630
g11
g12
sg13
V.SF Compact Rounded
p631
sg15
I400
sg16
g12
sg17
g12
sg18
V/System/Library/Fonts/SFCompactRounded-Black.otf
p632
sg20
g21
sbag1
(g8
g3
NtRp633
(dp634
g11
g40
sg13
VSTIXNonUnicode
p635
sg15
I400
sg16
g12
sg17
g12
sg18
V/Library/Fonts/STIXNonUniIta.otf
p636
sg20
g21
sbag1
(g8
g3
NtRp637
(dp638
g11
g12
sg13
VSTIXIntegralsUp
p639
sg15
I400
sg16
g12
sg17
g12
sg18
V/Library/Fonts/STIXIntUpReg.otf
p640
sg20
g21
sbag1
(g8
g3
NtRp641
(dp642
g11
g12
sg13
VSystem Font
p643
sg15
I400
sg16
g12
sg17
g12
sg18
V/System/Library/Fonts/SFNSDisplay-ThinG3.otf
p644
sg20
g21
sbag1
(g8
g3
NtRp645
(dp646
g11
g40
sg13
VSTIXGeneral
p647
sg15
I700
sg16
g12
sg17
g12
sg18
V/Library/Fonts/STIXGeneralBolIta.otf
p648
sg20
g21
sbag1
(g8
g3
NtRp649
(dp650
g11
g12
sg13
VTrebuchet MS
p651
sg15
I400
sg16
g12
sg17
g12
sg18
V/Library/Fonts/Trebuchet MS.ttf
p652
sg20
g21
sbag1
(g8
g3
NtRp653
(dp654
g11
g12
sg13
V.SF Compact Text
p655
sg15
I400
sg16
g12
sg17
g12
sg18
V/System/Library/Fonts/SFCompactText-MediumItalic.otf
p656
sg20
g21
sbag1
(g8
g3
NtRp657
(dp658
g11
g12
sg13
VCourier New
p659
sg15
I700
sg16
g12
sg17
g12
sg18
V/Library/Fonts/Courier New Bold.ttf
p660
sg20
g21
sbag1
(g8
g3
NtRp661
(dp662
g11
g12
sg13
VBig Caslon
p663
sg15
I500
sg16
g12
sg17
g12
sg18
V/Library/Fonts/BigCaslon.ttf
p664
sg20
g21
sbag1
(g8
g3
NtRp665
(dp666
g11
g12
sg13
V.SF NS Text Condensed
p667
sg15
I400
sg16
g12
sg17
g12
sg18
V/System/Library/Fonts/SFNSTextCondensed-Semibold.otf
p668
sg20
g21
sbag1
(g8
g3
NtRp669
(dp670
g11
g12
sg13
VAyuthaya
p671
sg15
I400
sg16
g12
sg17
g12
sg18
V/Library/Fonts/Ayuthaya.ttf
p672
sg20
g21
sbag1
(g8
g3
NtRp673
(dp674
g11
g12
sg13
V.SF Compact Text
p675
sg15
I400
sg16
g12
sg17
g12
sg18
V/System/Library/Fonts/SFCompactText-SemiboldItalic.otf
p676
sg20
g21
sbag1
(g8
g3
NtRp677
(dp678
g11
g12
sg13
V.SF Compact Rounded
p679
sg15
I400
sg16
g12
sg17
g12
sg18
V/System/Library/Fonts/SFCompactRounded-Bold.otf
p680
sg20
g21
sbag1
(g8
g3
NtRp681
(dp682
g11
g12
sg13
VSTIXNonUnicode
p683
sg15
I700
sg16
g12
sg17
g12
sg18
V/Library/Fonts/STIXNonUniBol.otf
p684
sg20
g21
sbag1
(g8
g3
NtRp685
(dp686
g11
g12
sg13
VWebdings
p687
sg15
I400
sg16
g12
sg17
g12
sg18
V/Library/Fonts/Webdings.ttf
p688
sg20
g21
sbag1
(g8
g3
NtRp689
(dp690
g11
g12
sg13
VApple Braille
p691
sg15
I400
sg16
g12
sg17
g12
sg18
V/System/Library/Fonts/Apple Braille Pinpoint 6 Dot.ttf
p692
sg20
g21
sbag1
(g8
g3
NtRp693
(dp694
g11
g12
sg13
V.SF Compact Text
p695
sg15
I400
sg16
g12
sg17
g12
sg18
V/System/Library/Fonts/SFCompactText-RegularItalic.otf
p696
sg20
g21
sbag1
(g8
g3
NtRp697
(dp698
g11
g12
sg13
VSymbol
p699
sg15
I400
sg16
g12
sg17
g12
sg18
V/System/Library/Fonts/Symbol.ttf
p700
sg20
g21
sbag1
(g8
g3
NtRp701
(dp702
g11
g40
sg13
VTrebuchet MS
p703
sg15
I700
sg16
g12
sg17
g12
sg18
V/Library/Fonts/Trebuchet MS Bold Italic.ttf
p704
sg20
g21
sbag1
(g8
g3
NtRp705
(dp706
g11
g12
sg13
VSystem Font
p707
sg15
I400
sg16
g12
sg17
g12
sg18
V/System/Library/Fonts/SFNSDisplay-UltralightItalic.otf
p708
sg20
g21
sbag1
(g8
g3
NtRp709
(dp710
g11
g12
sg13
VWingdings 2
p711
sg15
I400
sg16
g12
sg17
g12
sg18
V/Library/Fonts/Wingdings 2.ttf
p712
sg20
g21
sbag1
(g8
g3
NtRp713
(dp714
g11
g12
sg13
VTahoma
p715
sg15
I400
sg16
g12
sg17
g12
sg18
V/Library/Fonts/Tahoma.ttf
p716
sg20
g21
sbag1
(g8
g3
NtRp717
(dp718
g11
g40
sg13
VBrush Script MT
p719
sg15
I400
sg16
g12
sg17
g12
sg18
V/Library/Fonts/Brush Script.ttf
p720
sg20
g21
sbag1
(g8
g3
NtRp721
(dp722
g11
g12
sg13
V.SF NS Symbols
p723
sg15
I400
sg16
g12
sg17
g12
sg18
V/System/Library/Fonts/SFNSSymbols-Light.otf
p724
sg20
g21
sbag1
(g8
g3
NtRp725
(dp726
g11
g12
sg13
V.Keyboard
p727
sg15
I400
sg16
g12
sg17
g12
sg18
V/System/Library/Fonts/Keyboard.ttf
p728
sg20
g21
sbag1
(g8
g3
NtRp729
(dp730
g11
g12
sg13
V.SF Compact Text
p731
sg15
I400
sg16
g12
sg17
g12
sg18
V/System/Library/Fonts/SFCompactText-Medium.otf
p732
sg20
g21
sbag1
(g8
g3
NtRp733
(dp734
g11
g12
sg13
V.SF NS Symbols
p735
sg15
I400
sg16
g12
sg17
g12
sg18
V/System/Library/Fonts/SFNSSymbols-Semibold.otf
p736
sg20
g21
sbag1
(g8
g3
NtRp737
(dp738
g11
g12
sg13
VSTIXSizeOneSym
p739
sg15
I400
sg16
g12
sg17
g12
sg18
V/Library/Fonts/STIXSizOneSymReg.otf
p740
sg20
g21
sbag1
(g8
g3
NtRp741
(dp742
g11
g12
sg13
VSTIXIntegralsUpSm
p743
sg15
I400
sg16
g12
sg17
g12
sg18
V/Library/Fonts/STIXIntUpSmReg.otf
p744
sg20
g21
sbag1
(g8
g3
NtRp745
(dp746
g11
g12
sg13
VAndale Mono
p747
sg15
I400
sg16
g12
sg17
g12
sg18
V/Library/Fonts/Andale Mono.ttf
p748
sg20
g21
sbag1
(g8
g3
NtRp749
(dp750
g11
g12
sg13
VKhmer Sangam MN
p751
sg15
I400
sg16
g12
sg17
g12
sg18
V/Library/Fonts/Khmer Sangam MN.ttf
p752
sg20
g21
sbag1
(g8
g3
NtRp753
(dp754
g11
g12
sg13
VMicrosoft Sans Serif
p755
sg15
I400
sg16
g12
sg17
g12
sg18
V/Library/Fonts/Microsoft Sans Serif.ttf
p756
sg20
g21
sbag1
(g8
g3
NtRp757
(dp758
g11
g12
sg13
VSTIXIntegralsUpD
p759
sg15
I700
sg16
g12
sg17
g12
sg18
V/Library/Fonts/STIXIntUpDBol.otf
p760
sg20
g21
sbag1
(g8
g3
NtRp761
(dp762
g11
g12
sg13
V.SF Compact Text
p763
sg15
I400
sg16
g12
sg17
g12
sg18
V/System/Library/Fonts/SFCompactText-Light.otf
p764
sg20
g21
sbag1
(g8
g3
NtRp765
(dp766
g11
g12
sg13
VSTIXGeneral
p767
sg15
I400
sg16
g12
sg17
g12
sg18
V/Library/Fonts/STIXGeneral.otf
p768
sg20
g21
sbag1
(g8
g3
NtRp769
(dp770
g11
g40
sg13
VCourier New
p771
sg15
I400
sg16
g12
sg17
g12
sg18
V/Library/Fonts/Courier New Italic.ttf
p772
sg20
g21
sbag1
(g8
g3
NtRp773
(dp774
g11
g12
sg13
VArial Black
p775
sg15
I900
sg16
g12
sg17
g12
sg18
V/Library/Fonts/Arial Black.ttf
p776
sg20
g21
sbag1
(g8
g3
NtRp777
(dp778
g11
g12
sg13
V.SF Compact Display
p779
sg15
I400
sg16
g12
sg17
g12
sg18
V/System/Library/Fonts/SFCompactDisplay-Ultralight.otf
p780
sg20
g21
sbag1
(g8
g3
NtRp781
(dp782
g11
g12
sg13
V.SF Compact Display
p783
sg15
I400
sg16
g12
sg17
g12
sg18
V/System/Library/Fonts/SFCompactDisplay-Thin.otf
p784
sg20
g21
sbag1
(g8
g3
NtRp785
(dp786
g11
g40
sg13
VSTIXGeneral
p787
sg15
I400
sg16
g12
sg17
g12
sg18
V/Library/Fonts/STIXGeneralItalic.otf
p788
sg20
g21
sbag1
(g8
g3
NtRp789
(dp790
g11
g12
sg13
VSilom
p791
sg15
I400
sg16
g12
sg17
g12
sg18
V/Library/Fonts/Silom.ttf
p792
sg20
g21
sbag1
(g8
g3
NtRp793
(dp794
g11
g12
sg13
VSystem Font
p795
sg15
I400
sg16
g12
sg17
g12
sg18
V/System/Library/Fonts/SFNSDisplay-ThinG4.otf
p796
sg20
g21
sbag1
(g8
g3
NtRp797
(dp798
g11
g12
sg13
V.SF NS Display Condensed
p799
sg15
I400
sg16
g12
sg17
g12
sg18
V/System/Library/Fonts/SFNSDisplayCondensed-Medium.otf
p800
sg20
g21
sbag1
(g8
g3
NtRp801
(dp802
g11
g12
sg13
V.SF NS Text Condensed
p803
sg15
I400
sg16
g12
sg17
g12
sg18
V/System/Library/Fonts/SFNSTextCondensed-Light.otf
p804
sg20
g21
sbag1
(g8
g3
NtRp805
(dp806
g11
g12
sg13
VSTIXSizeFourSym
p807
sg15
I400
sg16
g12
sg17
g12
sg18
V/Library/Fonts/STIXSizFourSymReg.otf
p808
sg20
g21
sbag1
(g8
g3
NtRp809
(dp810
g11
g12
sg13
VApple Chancery
p811
sg15
I400
sg16
g12
sg17
g12
sg18
V/Library/Fonts/Apple Chancery.ttf
p812
sg20
g21
sbag1
(g8
g3
NtRp813
(dp814
g11
g12
sg13
V.SF Compact Text
p815
sg15
I400
sg16
g12
sg17
g12
sg18
V/System/Library/Fonts/SFCompactText-LightItalic.otf
p816
sg20
g21
sbag1
(g8
g3
NtRp817
(dp818
g11
g12
sg13
V.SF NS Rounded
p819
sg15
I400
sg16
g12
sg17
g12
sg18
V/System/Library/Fonts/SFNSRounded-Regular.otf
p820
sg20
g21
sbag1
(g8
g3
NtRp821
(dp822
g11
g12
sg13
V.SF NS Rounded
p823
sg15
I400
sg16
g12
sg17
g12
sg18
V/System/Library/Fonts/SFNSRounded-Thin.otf
p824
sg20
g21
sbag1
(g8
g3
NtRp825
(dp826
g11
g12
sg13
VWingdings 3
p827
sg15
I400
sg16
g12
sg17
g12
sg18
V/Library/Fonts/Wingdings 3.ttf
p828
sg20
g21
sbag1
(g8
g3
NtRp829
(dp830
g11
g12
sg13
VComic Sans MS
p831
sg15
I700
sg16
g12
sg17
g12
sg18
V/Library/Fonts/Comic Sans MS Bold.ttf
p832
sg20
g21
sbag1
(g8
g3
NtRp833
(dp834
g11
g12
sg13
V.SF NS Rounded
p835
sg15
I400
sg16
g12
sg17
g12
sg18
V/System/Library/Fonts/SFNSRounded-Semibold.otf
p836
sg20
g21
sbag1
(g8
g3
NtRp837
(dp838
g11
g12
sg13
V.SF Compact Display
p839
sg15
I400
sg16
g12
sg17
g12
sg18
V/System/Library/Fonts/SFCompactDisplay-Heavy.otf
p840
sg20
g21
sbag1
(g8
g3
NtRp841
(dp842
g11
g12
sg13
VSTIXIntegralsUpSm
p843
sg15
I700
sg16
g12
sg17
g12
sg18
V/Library/Fonts/STIXIntUpSmBol.otf
p844
sg20
g21
sbag1
(g8
g3
NtRp845
(dp846
g11
g12
sg13
VLao Sangam MN
p847
sg15
I400
sg16
g12
sg17
g12
sg18
V/Library/Fonts/Lao Sangam MN.ttf
p848
sg20
g21
sbag1
(g8
g3
NtRp849
(dp850
g11
g12
sg13
VTrattatello
p851
sg15
I400
sg16
g12
sg17
g12
sg18
V/Library/Fonts/Trattatello.ttf
p852
sg20
g21
sbag1
(g8
g3
NtRp853
(dp854
g11
g12
sg13
V.SF NS Symbols
p855
sg15
I400
sg16
g12
sg17
g12
sg18
V/System/Library/Fonts/SFNSSymbols-Bold.otf
p856
sg20
g21
sbag1
(g8
g3
NtRp857
(dp858
g11
g12
sg13
VSTIXSizeOneSym
p859
sg15
I700
sg16
g12
sg17
g12
sg18
V/Library/Fonts/STIXSizOneSymBol.otf
p860
sg20
g21
sbag1
(g8
g3
NtRp861
(dp862
g11
g12
sg13
VComic Sans MS
p863
sg15
I400
sg16
g12
sg17
g12
sg18
V/Library/Fonts/Comic Sans MS.ttf
p864
sg20
g21
sbag1
(g8
g3
NtRp865
(dp866
g11
g12
sg13
VSTIXSizeTwoSym
p867
sg15
I400
sg16
g12
sg17
g12
sg18
V/Library/Fonts/STIXSizTwoSymReg.otf
p868
sg20
g21
sbag1
(g8
g3
NtRp869
(dp870
g11
g12
sg13
VBodoni Ornaments
p871
sg15
I400
sg16
g12
sg17
g12
sg18
V/Library/Fonts/Bodoni Ornaments.ttf
p872
sg20
g21
sbag1
(g8
g3
NtRp873
(dp874
g11
g12
sg13
VSTIXSizeFourSym
p875
sg15
I700
sg16
g12
sg17
g12
sg18
V/Library/Fonts/STIXSizFourSymBol.otf
p876
sg20
g21
sbag1
(g8
g3
NtRp877
(dp878
g11
g12
sg13
V.SF Compact Rounded
p879
sg15
I400
sg16
g12
sg17
g12
sg18
V/System/Library/Fonts/SFCompactRounded-Regular.otf
p880
sg20
g21
sbag1
(g8
g3
NtRp881
(dp882
g11
g12
sg13
VArial
p883
sg15
I700
sg16
g12
sg17
g12
sg18
V/Library/Fonts/Arial Bold.ttf
p884
sg20
g21
sbag1
(g8
g3
NtRp885
(dp886
g11
g12
sg13
VGeorgia
p887
sg15
I700
sg16
g12
sg17
g12
sg18
V/Library/Fonts/Georgia Bold.ttf
p888
sg20
g21
sbag1
(g8
g3
NtRp889
(dp890
g11
g12
sg13
VSTIXIntegralsD
p891
sg15
I400
sg16
g12
sg17
g12
sg18
V/Library/Fonts/STIXIntDReg.otf
p892
sg20
g21
sbag1
(g8
g3
NtRp893
(dp894
g11
g12
sg13
V.SF NS Symbols
p895
sg15
I400
sg16
g12
sg17
g12
sg18
V/System/Library/Fonts/SFNSSymbols-Regular.otf
p896
sg20
g21
sbag1
(g8
g3
NtRp897
(dp898
g11
g12
sg13
VWingdings
p899
sg15
I400
sg16
g12
sg17
g12
sg18
V/Library/Fonts/Wingdings.ttf
p900
sg20
g21
sbag1
(g8
g3
NtRp901
(dp902
g11
g12
sg13
VImpact
p903
sg15
I400
sg16
g12
sg17
g12
sg18
V/Library/Fonts/Impact.ttf
p904
sg20
g21
sbag1
(g8
g3
NtRp905
(dp906
g11
g12
sg13
VSystem Font
p907
sg15
I400
sg16
g12
sg17
g12
sg18
V/System/Library/Fonts/SFNSDisplay-ThinItalic.otf
p908
sg20
g21
sbag1
(g8
g3
NtRp909
(dp910
g11
g12
sg13
VTahoma
p911
sg15
I700
sg16
g12
sg17
g12
sg18
V/Library/Fonts/Tahoma Bold.ttf
p912
sg20
g21
sbag1
(g8
g3
NtRp913
(dp914
g11
g40
sg13
VGeorgia
p915
sg15
I700
sg16
g12
sg17
g12
sg18
V/Library/Fonts/Georgia Bold Italic.ttf
p916
sg20
g21
sbag1
(g8
g3
NtRp917
(dp918
g11
g12
sg13
VSTIXIntegralsUpD
p919
sg15
I400
sg16
g12
sg17
g12
sg18
V/Library/Fonts/STIXIntUpDReg.otf
p920
sg20
g21
sbag1
(g8
g3
NtRp921
(dp922
g11
g12
sg13
VSathu
p923
sg15
I400
sg16
g12
sg17
g12
sg18
V/Library/Fonts/Sathu.ttf
p924
sg20
g21
sbag1
(g8
g3
NtRp925
(dp926
g11
g12
sg13
V.SF NS Rounded
p927
sg15
I400
sg16
g12
sg17
g12
sg18
V/System/Library/Fonts/SFNSRounded-Black.otf
p928
sg20
g21
sbag1
(g8
g3
NtRp929
(dp930
g11
g12
sg13
V.SF NS Rounded
p931
sg15
I400
sg16
g12
sg17
g12
sg18
V/System/Library/Fonts/SFNSRounded-Heavy.otf
p932
sg20
g21
sbag1
(g8
g3
NtRp933
(dp934
g11
g12
sg13
VSystem Font
p935
sg15
I400
sg16
g12
sg17
g12
sg18
V/System/Library/Fonts/SFNSTextItalic.ttf
p936
sg20
g21
sbasS'defaultFamily'
p937
(dp938
Vafm
p939
VHelvetica
p940
sVttf
p941
VDejaVu Sans
p942
ssS'ttffiles'
p943
(lp944
g19
ag25
ag29
ag33
ag37
ag42
ag46
ag50
ag54
ag58
ag63
ag67
ag71
ag75
ag79
ag83
ag87
ag91
ag95
ag99
ag103
ag107
ag111
ag115
ag119
ag123
ag127
ag131
ag135
ag139
ag143
ag147
ag151
ag155
ag159
ag163
ag167
ag171
ag175
ag179
ag183
ag187
ag191
ag195
ag199
ag203
ag207
ag211
ag216
ag220
ag224
ag228
ag232
ag236
ag240
ag244
ag248
ag252
ag256
aV/Library/Fonts/NISC18030.ttf
p945
ag260
ag264
ag268
ag272
ag276
ag280
ag284
ag288
ag292
ag296
ag300
ag304
ag308
ag312
ag316
ag320
ag324
ag328
ag332
ag336
ag340
ag344
ag348
ag352
ag356
ag360
ag364
ag368
ag372
ag376
ag380
ag384
ag388
ag392
ag396
ag400
ag404
ag408
ag412
ag416
ag420
ag424
ag428
ag432
ag436
ag440
ag444
ag448
ag452
ag456
ag460
ag464
ag468
ag472
ag476
ag480
ag484
ag488
ag492
ag496
ag500
ag504
ag508
ag512
ag516
ag520
ag524
ag528
ag532
ag536
ag540
ag544
ag548
ag552
ag556
ag560
ag564
ag568
ag572
ag576
ag580
ag584
ag588
ag592
ag596
ag600
ag604
ag608
ag612
ag616
ag620
ag624
ag628
ag632
ag636
ag640
ag644
ag648
ag652
ag656
ag660
ag664
ag668
ag672
ag676
ag680
ag684
ag688
ag692
ag696
ag700
ag704
ag708
ag712
ag716
ag720
ag724
ag728
ag732
ag736
ag740
ag744
ag748
ag752
ag756
ag760
ag764
ag768
ag772
ag776
ag780
ag784
ag788
ag792
ag796
ag800
ag804
ag808
ag812
ag816
ag820
ag824
ag828
ag832
ag836
ag840
ag844
ag848
ag852
ag856
ag860
ag864
ag868
ag872
ag876
ag880
ag884
ag888
ag892
ag896
ag900
ag904
ag908
ag912
ag916
ag920
ag924
ag928
ag932
ag936
asS'_FontManager__default_weight'
p946
Vnormal
p947
sS'_version'
p948
I201
sS'default_size'
p949
NsS'defaultFont'
p950
(dp951
g939
V/Users/tbiancal/miniconda3/envs/dev2/lib/python2.7/site-packages/matplotlib/mpl-data/fonts/afm/ptmb8a.afm
p952
sg941
g19
ssS'afmfiles'
p953
(lp954
g952
aV/Users/tbiancal/miniconda3/envs/dev2/lib/python2.7/site-packages/matplotlib/mpl-data/fonts/pdfcorefonts/Times-Roman.afm
p955
aV/Users/tbiancal/miniconda3/envs/dev2/lib/python2.7/site-packages/matplotlib/mpl-data/fonts/afm/pbkdi8a.afm
p956
aV/Users/tbiancal/miniconda3/envs/dev2/lib/python2.7/site-packages/matplotlib/mpl-data/fonts/pdfcorefonts/ZapfDingbats.afm
p957
aV/Users/tbiancal/miniconda3/envs/dev2/lib/python2.7/site-packages/matplotlib/mpl-data/fonts/afm/phvr8a.afm
p958
aV/Users/tbiancal/miniconda3/envs/dev2/lib/python2.7/site-packages/matplotlib/mpl-data/fonts/afm/pplr8a.afm
p959
aV/Users/tbiancal/miniconda3/envs/dev2/lib/python2.7/site-packages/matplotlib/mpl-data/fonts/afm/pncbi8a.afm
p960
aV/Users/tbiancal/miniconda3/envs/dev2/lib/python2.7/site-packages/matplotlib/mpl-data/fonts/afm/cmsy10.afm
p961
aV/Users/tbiancal/miniconda3/envs/dev2/lib/python2.7/site-packages/matplotlib/mpl-data/fonts/afm/ptmr8a.afm
p962
aV/Users/tbiancal/miniconda3/envs/dev2/lib/python2.7/site-packages/matplotlib/mpl-data/fonts/afm/pplb8a.afm
p963
aV/Users/tbiancal/miniconda3/envs/dev2/lib/python2.7/site-packages/matplotlib/mpl-data/fonts/pdfcorefonts/Helvetica.afm
p964
aV/Users/tbiancal/miniconda3/envs/dev2/lib/python2.7/site-packages/matplotlib/mpl-data/fonts/afm/pagdo8a.afm
p965
aV/Users/tbiancal/miniconda3/envs/dev2/lib/python2.7/site-packages/matplotlib/mpl-data/fonts/afm/pcrr8a.afm
p966
aV/Users/tbiancal/miniconda3/envs/dev2/lib/python2.7/site-packages/matplotlib/mpl-data/fonts/pdfcorefonts/Helvetica-Bold.afm
p967
aV/Users/tbiancal/miniconda3/envs/dev2/lib/python2.7/site-packages/matplotlib/mpl-data/fonts/afm/psyr.afm
p968
aV/Users/tbiancal/miniconda3/envs/dev2/lib/python2.7/site-packages/matplotlib/mpl-data/fonts/afm/ptmbi8a.afm
p969
aV/Users/tbiancal/miniconda3/envs/dev2/lib/python2.7/site-packages/matplotlib/mpl-data/fonts/afm/cmtt10.afm
p970
aV/Users/tbiancal/miniconda3/envs/dev2/lib/python2.7/site-packages/matplotlib/mpl-data/fonts/afm/phvbo8an.afm
p971
aV/Users/tbiancal/miniconda3/envs/dev2/lib/python2.7/site-packages/matplotlib/mpl-data/fonts/pdfcorefonts/Courier-BoldOblique.afm
p972
aV/Users/tbiancal/miniconda3/envs/dev2/lib/python2.7/site-packages/matplotlib/mpl-data/fonts/pdfcorefonts/Courier.afm
p973
aV/Users/tbiancal/miniconda3/envs/dev2/lib/python2.7/site-packages/matplotlib/mpl-data/fonts/afm/pzdr.afm
p974
aV/Users/tbiancal/miniconda3/envs/dev2/lib/python2.7/site-packages/matplotlib/mpl-data/fonts/afm/putri8a.afm
p975
aV/Users/tbiancal/miniconda3/envs/dev2/lib/python2.7/site-packages/matplotlib/mpl-data/fonts/afm/pbkd8a.afm
p976
aV/Users/tbiancal/miniconda3/envs/dev2/lib/python2.7/site-packages/matplotlib/mpl-data/fonts/afm/putb8a.afm
p977
aV/Users/tbiancal/miniconda3/envs/dev2/lib/python2.7/site-packages/matplotlib/mpl-data/fonts/afm/pncri8a.afm
p978
aV/Users/tbiancal/miniconda3/envs/dev2/lib/python2.7/site-packages/matplotlib/mpl-data/fonts/pdfcorefonts/Helvetica-BoldOblique.afm
p979
aV/Users/tbiancal/miniconda3/envs/dev2/lib/python2.7/site-packages/matplotlib/mpl-data/fonts/afm/pbkl8a.afm
p980
aV/Users/tbiancal/miniconda3/envs/dev2/lib/python2.7/site-packages/matplotlib/mpl-data/fonts/afm/cmex10.afm
p981
aV/Users/tbiancal/miniconda3/envs/dev2/lib/python2.7/site-packages/matplotlib/mpl-data/fonts/pdfcorefonts/Symbol.afm
p982
aV/Users/tbiancal/miniconda3/envs/dev2/lib/python2.7/site-packages/matplotlib/mpl-data/fonts/pdfcorefonts/Times-BoldItalic.afm
p983
aV/Users/tbiancal/miniconda3/envs/dev2/lib/python2.7/site-packages/matplotlib/mpl-data/fonts/afm/phvb8a.afm
p984
aV/Users/tbiancal/miniconda3/envs/dev2/lib/python2.7/site-packages/matplotlib/mpl-data/fonts/pdfcorefonts/Helvetica-Oblique.afm
p985
aV/Users/tbiancal/miniconda3/envs/dev2/lib/python2.7/site-packages/matplotlib/mpl-data/fonts/afm/pplri8a.afm
p986
aV/Users/tbiancal/miniconda3/envs/dev2/lib/python2.7/site-packages/matplotlib/mpl-data/fonts/afm/cmr10.afm
p987
aV/Users/tbiancal/miniconda3/envs/dev2/lib/python2.7/site-packages/matplotlib/mpl-data/fonts/afm/phvbo8a.afm
p988
aV/Users/tbiancal/miniconda3/envs/dev2/lib/python2.7/site-packages/matplotlib/mpl-data/fonts/afm/phvl8a.afm
p989
aV/Users/tbiancal/miniconda3/envs/dev2/lib/python2.7/site-packages/matplotlib/mpl-data/fonts/pdfcorefonts/Times-Bold.afm
p990
aV/Users/tbiancal/miniconda3/envs/dev2/lib/python2.7/site-packages/matplotlib/mpl-data/fonts/afm/putr8a.afm
p991
aV/Users/tbiancal/miniconda3/envs/dev2/lib/python2.7/site-packages/matplotlib/mpl-data/fonts/afm/pcrb8a.afm
p992
aV/Users/tbiancal/miniconda3/envs/dev2/lib/python2.7/site-packages/matplotlib/mpl-data/fonts/afm/pzcmi8a.afm
p993
aV/Users/tbiancal/miniconda3/envs/dev2/lib/python2.7/site-packages/matplotlib/mpl-data/fonts/afm/ptmri8a.afm
p994
aV/Users/tbiancal/miniconda3/envs/dev2/lib/python2.7/site-packages/matplotlib/mpl-data/fonts/afm/pagk8a.afm
p995
aV/Users/tbiancal/miniconda3/envs/dev2/lib/python2.7/site-packages/matplotlib/mpl-data/fonts/afm/phvr8an.afm
p996
aV/Users/tbiancal/miniconda3/envs/dev2/lib/python2.7/site-packages/matplotlib/mpl-data/fonts/pdfcorefonts/Courier-Bold.afm
p997
aV/Users/tbiancal/miniconda3/envs/dev2/lib/python2.7/site-packages/matplotlib/mpl-data/fonts/afm/pagd8a.afm
p998
aV/Users/tbiancal/miniconda3/envs/dev2/lib/python2.7/site-packages/matplotlib/mpl-data/fonts/afm/pncb8a.afm
p999
aV/Users/tbiancal/miniconda3/envs/dev2/lib/python2.7/site-packages/matplotlib/mpl-data/fonts/pdfcorefonts/Times-Italic.afm
p1000
aV/Users/tbiancal/miniconda3/envs/dev2/lib/python2.7/site-packages/matplotlib/mpl-data/fonts/afm/pcrbo8a.afm
p1001
aV/Users/tbiancal/miniconda3/envs/dev2/lib/python2.7/site-packages/matplotlib/mpl-data/fonts/afm/putbi8a.afm
p1002
aV/Users/tbiancal/miniconda3/envs/dev2/lib/python2.7/site-packages/matplotlib/mpl-data/fonts/afm/pagko8a.afm
p1003
aV/Users/tbiancal/miniconda3/envs/dev2/lib/python2.7/site-packages/matplotlib/mpl-data/fonts/afm/phvlo8a.afm
p1004
aV/Users/tbiancal/miniconda3/envs/dev2/lib/python2.7/site-packages/matplotlib/mpl-data/fonts/afm/pncr8a.afm
p1005
aV/Users/tbiancal/miniconda3/envs/dev2/lib/python2.7/site-packages/matplotlib/mpl-data/fonts/afm/pbkli8a.afm
p1006
aV/Users/tbiancal/miniconda3/envs/dev2/lib/python2.7/site-packages/matplotlib/mpl-data/fonts/afm/pplbi8a.afm
p1007
aV/Users/tbiancal/miniconda3/envs/dev2/lib/python2.7/site-packages/matplotlib/mpl-data/fonts/afm/pcrro8a.afm
p1008
aV/Users/tbiancal/miniconda3/envs/dev2/lib/python2.7/site-packages/matplotlib/mpl-data/fonts/afm/cmmi10.afm
p1009
aV/Users/tbiancal/miniconda3/envs/dev2/lib/python2.7/site-packages/matplotlib/mpl-data/fonts/afm/phvro8a.afm
p1010
aV/Users/tbiancal/miniconda3/envs/dev2/lib/python2.7/site-packages/matplotlib/mpl-data/fonts/afm/phvb8an.afm
p1011
aV/Users/tbiancal/miniconda3/envs/dev2/lib/python2.7/site-packages/matplotlib/mpl-data/fonts/afm/phvro8an.afm
p1012
aV/Users/tbiancal/miniconda3/envs/dev2/lib/python2.7/site-packages/matplotlib/mpl-data/fonts/pdfcorefonts/Courier-Oblique.afm
p1013
asS'afmlist'
p1014
(lp1015
g1
(g8
g3
NtRp1016
(dp1017
g11
Vnormal
p1018
sg13
VTimes
p1019
sg15
I700
sg16
g1018
sg17
g1018
sg18
g952
sg20
Vscalable
p1020
sbag1
(g8
g3
NtRp1021
(dp1022
g11
g1018
sg13
VTimes
p1023
sg15
I500
sg16
g1018
sg17
g1018
sg18
g955
sg20
g1020
sbag1
(g8
g3
NtRp1024
(dp1025
g11
Vitalic
p1026
sg13
VITC Bookman
p1027
sg15
I600
sg16
g1018
sg17
g1018
sg18
g956
sg20
g1020
sbag1
(g8
g3
NtRp1028
(dp1029
g11
g1018
sg13
VZapfDingbats
p1030
sg15
I500
sg16
g1018
sg17
g1018
sg18
g957
sg20
g1020
sbag1
(g8
g3
NtRp1031
(dp1032
g11
g1018
sg13
VHelvetica
p1033
sg15
I500
sg16
g1018
sg17
g1018
sg18
g958
sg20
g1020
sbag1
(g8
g3
NtRp1034
(dp1035
g11
g1018
sg13
VPalatino
p1036
sg15
I500
sg16
g1018
sg17
g1018
sg18
g959
sg20
g1020
sbag1
(g8
g3
NtRp1037
(dp1038
g11
g1026
sg13
VNew Century Schoolbook
p1039
sg15
I700
sg16
g1018
sg17
g1018
sg18
g960
sg20
g1020
sbag1
(g8
g3
NtRp1040
(dp1041
g11
g1026
sg13
VComputer Modern
p1042
sg15
I500
sg16
g1018
sg17
g1018
sg18
g961
sg20
g1020
sbag1
(g8
g3
NtRp1043
(dp1044
g11
g1018
sg13
VTimes
p1045
sg15
I500
sg16
g1018
sg17
g1018
sg18
g962
sg20
g1020
sbag1
(g8
g3
NtRp1046
(dp1047
g11
g1018
sg13
VPalatino
p1048
sg15
I700
sg16
g1018
sg17
g1018
sg18
g963
sg20
g1020
sbag1
(g8
g3
NtRp1049
(dp1050
g11
g1018
sg13
VHelvetica
p1051
sg15
I500
sg16
g1018
sg17
g1018
sg18
g964
sg20
g1020
sbag1
(g8
g3
NtRp1052
(dp1053
g11
g1026
sg13
VITC Avant Garde Gothic
p1054
sg15
I600
sg16
g1018
sg17
g1018
sg18
g965
sg20
g1020
sbag1
(g8
g3
NtRp1055
(dp1056
g11
g1018
sg13
VCourier
p1057
sg15
I500
sg16
g1018
sg17
g1018
sg18
g966
sg20
g1020
sbag1
(g8
g3
NtRp1058
(dp1059
g11
g1018
sg13
VHelvetica
p1060
sg15
I700
sg16
g1018
sg17
g1018
sg18
g967
sg20
g1020
sbag1
(g8
g3
NtRp1061
(dp1062
g11
g1018
sg13
VSymbol
p1063
sg15
I500
sg16
g1018
sg17
g1018
sg18
g968
sg20
g1020
sbag1
(g8
g3
NtRp1064
(dp1065
g11
g1026
sg13
VTimes
p1066
sg15
I700
sg16
g1018
sg17
g1018
sg18
g969
sg20
g1020
sbag1
(g8
g3
NtRp1067
(dp1068
g11
g1018
sg13
VComputer Modern
p1069
sg15
I500
sg16
g1018
sg17
g1018
sg18
g970
sg20
g1020
sbag1
(g8
g3
NtRp1070
(dp1071
g11
g1026
sg13
VHelvetica
p1072
sg15
I700
sg16
Vcondensed
p1073
sg17
g1018
sg18
g971
sg20
g1020
sbag1
(g8
g3
NtRp1074
(dp1075
g11
g1026
sg13
VCourier
p1076
sg15
I700
sg16
g1018
sg17
g1018
sg18
g972
sg20
g1020
sbag1
(g8
g3
NtRp1077
(dp1078
g11
g1018
sg13
VCourier
p1079
sg15
I500
sg16
g1018
sg17
g1018
sg18
g973
sg20
g1020
sbag1
(g8
g3
NtRp1080
(dp1081
g11
g1018
sg13
VITC Zapf Dingbats
p1082
sg15
I500
sg16
g1018
sg17
g1018
sg18
g974
sg20
g1020
sbag1
(g8
g3
NtRp1083
(dp1084
g11
g1026
sg13
VUtopia
p1085
sg15
I400
sg16
g1018
sg17
g1018
sg18
g975
sg20
g1020
sbag1
(g8
g3
NtRp1086
(dp1087
g11
g1018
sg13
VITC Bookman
p1088
sg15
I600
sg16
g1018
sg17
g1018
sg18
g976
sg20
g1020
sbag1
(g8
g3
NtRp1089
(dp1090
g11
g1018
sg13
VUtopia
p1091
sg15
I700
sg16
g1018
sg17
g1018
sg18
g977
sg20
g1020
sbag1
(g8
g3
NtRp1092
(dp1093
g11
g1026
sg13
VNew Century Schoolbook
p1094
sg15
I500
sg16
g1018
sg17
g1018
sg18
g978
sg20
g1020
sbag1
(g8
g3
NtRp1095
(dp1096
g11
g1026
sg13
VHelvetica
p1097
sg15
I700
sg16
g1018
sg17
g1018
sg18
g979
sg20
g1020
sbag1
(g8
g3
NtRp1098
(dp1099
g11
g1018
sg13
VITC Bookman
p1100
sg15
I200
sg16
g1018
sg17
g1018
sg18
g980
sg20
g1020
sbag1
(g8
g3
NtRp1101
(dp1102
g11
g1018
sg13
VComputer Modern
p1103
sg15
I500
sg16
g1018
sg17
g1018
sg18
g981
sg20
g1020
sbag1
(g8
g3
NtRp1104
(dp1105
g11
g1018
sg13
VSymbol
p1106
sg15
I500
sg16
g1018
sg17
g1018
sg18
g982
sg20
g1020
sbag1
(g8
g3
NtRp1107
(dp1108
g11
g1026
sg13
VTimes
p1109
sg15
I700
sg16
g1018
sg17
g1018
sg18
g983
sg20
g1020
sbag1
(g8
g3
NtRp1110
(dp1111
g11
g1018
sg13
VHelvetica
p1112
sg15
I700
sg16
g1018
sg17
g1018
sg18
g984
sg20
g1020
sbag1
(g8
g3
NtRp1113
(dp1114
g11
g1026
sg13
VHelvetica
p1115
sg15
I500
sg16
g1018
sg17
g1018
sg18
g985
sg20
g1020
sbag1
(g8
g3
NtRp1116
(dp1117
g11
g1026
sg13
VPalatino
p1118
sg15
I500
sg16
g1018
sg17
g1018
sg18
g986
sg20
g1020
sbag1
(g8
g3
NtRp1119
(dp1120
g11
g1018
sg13
VComputer Modern
p1121
sg15
I500
sg16
g1018
sg17
g1018
sg18
g987
sg20
g1020
sbag1
(g8
g3
NtRp1122
(dp1123
g11
g1026
sg13
VHelvetica
p1124
sg15
I700
sg16
g1018
sg17
g1018
sg18
g988
sg20
g1020
sbag1
(g8
g3
NtRp1125
(dp1126
g11
g1018
sg13
VHelvetica
p1127
sg15
I200
sg16
g1018
sg17
g1018
sg18
g989
sg20
g1020
sbag1
(g8
g3
NtRp1128
(dp1129
g11
g1018
sg13
VTimes
p1130
sg15
I700
sg16
g1018
sg17
g1018
sg18
g990
sg20
g1020
sbag1
(g8
g3
NtRp1131
(dp1132
g11
g1018
sg13
VUtopia
p1133
sg15
I400
sg16
g1018
sg17
g1018
sg18
g991
sg20
g1020
sbag1
(g8
g3
NtRp1134
(dp1135
g11
g1018
sg13
VCourier
p1136
sg15
I700
sg16
g1018
sg17
g1018
sg18
g992
sg20
g1020
sbag1
(g8
g3
NtRp1137
(dp1138
g11
g1026
sg13
VITC Zapf Chancery
p1139
sg15
I500
sg16
g1018
sg17
g1018
sg18
g993
sg20
g1020
sbag1
(g8
g3
NtRp1140
(dp1141
g11
g1026
sg13
VTimes
p1142
sg15
I500
sg16
g1018
sg17
g1018
sg18
g994
sg20
g1020
sbag1
(g8
g3
NtRp1143
(dp1144
g11
g1018
sg13
VITC Avant Garde Gothic
p1145
sg15
I400
sg16
g1018
sg17
g1018
sg18
g995
sg20
g1020
sbag1
(g8
g3
NtRp1146
(dp1147
g11
g1018
sg13
VHelvetica
p1148
sg15
I500
sg16
g1073
sg17
g1018
sg18
g996
sg20
g1020
sbag1
(g8
g3
NtRp1149
(dp1150
g11
g1018
sg13
VCourier
p1151
sg15
I700
sg16
g1018
sg17
g1018
sg18
g997
sg20
g1020
sbag1
(g8
g3
NtRp1152
(dp1153
g11
g1018
sg13
VITC Avant Garde Gothic
p1154
sg15
I600
sg16
g1018
sg17
g1018
sg18
g998
sg20
g1020
sbag1
(g8
g3
NtRp1155
(dp1156
g11
g1018
sg13
VNew Century Schoolbook
p1157
sg15
I700
sg16
g1018
sg17
g1018
sg18
g999
sg20
g1020
sbag1
(g8
g3
NtRp1158
(dp1159
g11
g1026
sg13
VTimes
p1160
sg15
I500
sg16
g1018
sg17
g1018
sg18
g1000
sg20
g1020
sbag1
(g8
g3
NtRp1161
(dp1162
g11
g1026
sg13
VCourier
p1163
sg15
I700
sg16
g1018
sg17
g1018
sg18
g1001
sg20
g1020
sbag1
(g8
g3
NtRp1164
(dp1165
g11
g1026
sg13
VUtopia
p1166
sg15
I700
sg16
g1018
sg17
g1018
sg18
g1002
sg20
g1020
sbag1
(g8
g3
NtRp1167
(dp1168
g11
g1026
sg13
VITC Avant Garde Gothic
p1169
sg15
I400
sg16
g1018
sg17
g1018
sg18
g1003
sg20
g1020
sbag1
(g8
g3
NtRp1170
(dp1171
g11
g1026
sg13
VHelvetica
p1172
sg15
I200
sg16
g1018
sg17
g1018
sg18
g1004
sg20
g1020
sbag1
(g8
g3
NtRp1173
(dp1174
g11
g1018
sg13
VNew Century Schoolbook
p1175
sg15
I500
sg16
g1018
sg17
g1018
sg18
g1005
sg20
g1020
sbag1
(g8
g3
NtRp1176
(dp1177
g11
g1026
sg13
VITC Bookman
p1178
sg15
I200
sg16
g1018
sg17
g1018
sg18
g1006
sg20
g1020
sbag1
(g8
g3
NtRp1179
(dp1180
g11
g1026
sg13
VPalatino
p1181
sg15
I700
sg16
g1018
sg17
g1018
sg18
g1007
sg20
g1020
sbag1
(g8
g3
NtRp1182
(dp1183
g11
g1026
sg13
VCourier
p1184
sg15
I500
sg16
g1018
sg17
g1018
sg18
g1008
sg20
g1020
sbag1
(g8
g3
NtRp1185
(dp1186
g11
g1026
sg13
VComputer Modern
p1187
sg15
I500
sg16
g1018
sg17
g1018
sg18
g1009
sg20
g1020
sbag1
(g8
g3
NtRp1188
(dp1189
g11
g1026
sg13
VHelvetica
p1190
sg15
I500
sg16
g1018
sg17
g1018
sg18
g1010
sg20
g1020
sbag1
(g8
g3
NtRp1191
(dp1192
g11
g1018
sg13
VHelvetica
p1193
sg15
I700
sg16
g1073
sg17
g1018
sg18
g1011
sg20
g1020
sbag1
(g8
g3
NtRp1194
(dp1195
g11
g1026
sg13
VHelvetica
p1196
sg15
I500
sg16
g1073
sg17
g1018
sg18
g1012
sg20
g1020
sbag1
(g8
g3
NtRp1197
(dp1198
g11
g1026
sg13
VCourier
p1199
sg15
I500
sg16
g1018
sg17
g1018
sg18
g1013
sg20
g1020
sbasb.